; Function Attrs: mustprogress nounwind uwtable
define hidden void @_ZN10JavaThread21start_internal_daemonEPS_S0_6Handle14ThreadPriority(ptr noundef %0, ptr noundef %1, ptr readonly %2, i32 noundef %3) local_unnamed_addr #0 align 2 {
  %5 = load ptr, ptr @Threads_lock, align 8
  %.not.i.i = icmp eq ptr %5, null
  br i1 %.not.i.i, label %_ZN11MutexLockerC2EP6ThreadP5MutexNS2_18SafepointCheckFlagE.exit, label %6

6:                                                ; preds = %4
  tail call void @_ZN5Mutex4lockEP6Thread(ptr noundef nonnull align 8 dereferenceable(104) %5, ptr noundef %0) #21
  br label %_ZN11MutexLockerC2EP6ThreadP5MutexNS2_18SafepointCheckFlagE.exit

_ZN11MutexLockerC2EP6ThreadP5MutexNS2_18SafepointCheckFlagE.exit: ; preds = %4, %6
  %.not = icmp eq i32 %3, -1
  br i1 %.not, label %12, label %7

7:                                                ; preds = %_ZN11MutexLockerC2EP6ThreadP5MutexNS2_18SafepointCheckFlagE.exit
  %8 = icmp eq ptr %2, null
  br i1 %8, label %_ZNK6HandleclEv.exit, label %9

9:                                                ; preds = %7
  %10 = load ptr, ptr %2, align 8
  br label %_ZNK6HandleclEv.exit

_ZNK6HandleclEv.exit:                             ; preds = %7, %9
  %11 = phi ptr [ %10, %9 ], [ null, %7 ]
  tail call void @_ZN16java_lang_Thread12set_priorityEP7oopDesc14ThreadPriority(ptr noundef %11, i32 noundef %3) #21
  br label %12

12:                                               ; preds = %_ZNK6HandleclEv.exit, %_ZN11MutexLockerC2EP6ThreadP5MutexNS2_18SafepointCheckFlagE.exit
  %13 = icmp eq ptr %2, null
  br i1 %13, label %_ZNK6HandleclEv.exit6.thread, label %14

_ZNK6HandleclEv.exit6.thread:                     ; preds = %12
  tail call void @_ZN16java_lang_Thread10set_daemonEP7oopDesc(ptr noundef null) #21
  br label %_ZNK6HandleclEv.exit7

14:                                               ; preds = %12
  %15 = load ptr, ptr %2, align 8
  tail call void @_ZN16java_lang_Thread10set_daemonEP7oopDesc(ptr noundef %15) #21
  %16 = load ptr, ptr %2, align 8
  br label %_ZNK6HandleclEv.exit7

_ZNK6HandleclEv.exit7:                            ; preds = %_ZNK6HandleclEv.exit6.thread, %14
  %17 = phi ptr [ %16, %14 ], [ null, %_ZNK6HandleclEv.exit6.thread ]
  tail call void @_ZN10JavaThread20set_threadOopHandlesEP7oopDesc(ptr noundef nonnull align 8 dereferenceable(1800) %1, ptr noundef %17)
  tail call void @_ZN7Threads3addEP10JavaThreadb(ptr noundef nonnull %1, i1 noundef zeroext false) #21
  br i1 %13, label %_ZNK6HandleclEv.exit8, label %18

18:                                               ; preds = %_ZNK6HandleclEv.exit7
  %19 = load ptr, ptr %2, align 8
  br label %_ZNK6HandleclEv.exit8

_ZNK6HandleclEv.exit8:                            ; preds = %_ZNK6HandleclEv.exit7, %18
  %20 = phi ptr [ %19, %18 ], [ null, %_ZNK6HandleclEv.exit7 ]
  tail call void @_ZN16java_lang_Thread18release_set_threadEP7oopDescP10JavaThread(ptr noundef %20, ptr noundef nonnull %1) #21
  tail call void @_ZN6Thread5startEPS_(ptr noundef nonnull %1) #21
  br i1 %.not.i.i, label %_ZN11MutexLockerD2Ev.exit, label %21

21:                                               ; preds = %_ZNK6HandleclEv.exit8
  tail call void @_ZN5Mutex6unlockEv(ptr noundef nonnull align 8 dereferenceable(104) %5) #21
  br label %_ZN11MutexLockerD2Ev.exit

_ZN11MutexLockerD2Ev.exit:                        ; preds = %_ZNK6HandleclEv.exit8, %21
  ret void
}